target datalayout = "e-m:e-p270:32:32-p271:32:32-p272:64:64-i64:64-i128:128-f80:128-n8:16:32:64-S128"
target triple = "x86_64-pc-linux-gnu"

%struct.Vec_Int_t_ = type { i32, i32, ptr }

; Function Attrs: inlinehint nounwind uwtable
define internal void @Vec_IntSort(ptr noundef %0, i32 noundef %1) #2 {
  %3 = alloca ptr, align 8
  %4 = alloca i32, align 4
  store ptr %0, ptr %3, align 8, !tbaa !36
  store i32 %1, ptr %4, align 4, !tbaa !8
  %5 = load i32, ptr %4, align 4, !tbaa !8
  %6 = icmp ne i32 %5, 0
  br i1 %6, label %7, label %15

7:                                                ; preds = %2
  %8 = load ptr, ptr %3, align 8, !tbaa !36
  %9 = getelementptr inbounds nuw %struct.Vec_Int_t_, ptr %8, i32 0, i32 2
  %10 = load ptr, ptr %9, align 8, !tbaa !40
  %11 = load ptr, ptr %3, align 8, !tbaa !36
  %12 = getelementptr inbounds nuw %struct.Vec_Int_t_, ptr %11, i32 0, i32 1
  %13 = load i32, ptr %12, align 4, !tbaa !38
  %14 = sext i32 %13 to i64
  call void @qsort(ptr noundef %10, i64 noundef %14, i64 noundef 4, ptr noundef @Vec_IntSortCompare2)
  br label %23

15:                                               ; preds = %2
  %16 = load ptr, ptr %3, align 8, !tbaa !36
  %17 = getelementptr inbounds nuw %struct.Vec_Int_t_, ptr %16, i32 0, i32 2
  %18 = load ptr, ptr %17, align 8, !tbaa !40
  %19 = load ptr, ptr %3, align 8, !tbaa !36
  %20 = getelementptr inbounds nuw %struct.Vec_Int_t_, ptr %19, i32 0, i32 1
  %21 = load i32, ptr %20, align 4, !tbaa !38
  %22 = sext i32 %21 to i64
  call void @qsort(ptr noundef %18, i64 noundef %22, i64 noundef 4, ptr noundef @Vec_IntSortCompare1)
  br label %23

23:                                               ; preds = %15, %7
  ret void
}

; Function Attrs: inlinehint nounwind uwtable
define internal void @Vec_IntFree(ptr noundef %0) #2 {
  %2 = alloca ptr, align 8
  store ptr %0, ptr %2, align 8, !tbaa !36
  %3 = load ptr, ptr %2, align 8, !tbaa !36
  %4 = getelementptr inbounds nuw %struct.Vec_Int_t_, ptr %3, i32 0, i32 2
  %5 = load ptr, ptr %4, align 8, !tbaa !40
  %6 = icmp ne ptr %5, null
  br i1 %6, label %7, label %13

7:                                                ; preds = %1
  %8 = load ptr, ptr %2, align 8, !tbaa !36
  %9 = getelementptr inbounds nuw %struct.Vec_Int_t_, ptr %8, i32 0, i32 2
  %10 = load ptr, ptr %9, align 8, !tbaa !40
  call void @free(ptr noundef %10) #11
  %11 = load ptr, ptr %2, align 8, !tbaa !36
  %12 = getelementptr inbounds nuw %struct.Vec_Int_t_, ptr %11, i32 0, i32 2
  store ptr null, ptr %12, align 8, !tbaa !40
  br label %14

13:                                               ; preds = %1
  br label %14

14:                                               ; preds = %13, %7
  %15 = load ptr, ptr %2, align 8, !tbaa !36
  %16 = icmp ne ptr %15, null
  br i1 %16, label %17, label %19

17:                                               ; preds = %14
  %18 = load ptr, ptr %2, align 8, !tbaa !36
  call void @free(ptr noundef %18) #11
  store ptr null, ptr %2, align 8, !tbaa !36
  br label %20

19:                                               ; preds = %14
  br label %20

20:                                               ; preds = %19, %17
  ret void
}

; Function Attrs: inlinehint nounwind uwtable
define internal i32 @Vec_IntSize(ptr noundef %0) #2 {
  %2 = alloca ptr, align 8
  store ptr %0, ptr %2, align 8, !tbaa !36
  %3 = load ptr, ptr %2, align 8, !tbaa !36
  %4 = getelementptr inbounds nuw %struct.Vec_Int_t_, ptr %3, i32 0, i32 1
  %5 = load i32, ptr %4, align 4, !tbaa !38
  ret i32 %5
}

; Function Attrs: inlinehint nounwind uwtable
define internal i32 @Vec_IntUniqify(ptr noundef %0) #2 {
  %2 = alloca i32, align 4
  %3 = alloca ptr, align 8
  %4 = alloca i32, align 4
  %5 = alloca i32, align 4
  %6 = alloca i32, align 4
  %7 = alloca i32, align 4
  store ptr %0, ptr %3, align 8, !tbaa !36
  call void @llvm.lifetime.start.p0(i64 4, ptr %4) #11
  call void @llvm.lifetime.start.p0(i64 4, ptr %5) #11
  call void @llvm.lifetime.start.p0(i64 4, ptr %6) #11
  %8 = load ptr, ptr %3, align 8, !tbaa !36
  %9 = getelementptr inbounds nuw %struct.Vec_Int_t_, ptr %8, i32 0, i32 1
  %10 = load i32, ptr %9, align 4, !tbaa !38
  %11 = icmp slt i32 %10, 2
  br i1 %11, label %12, label %13

12:                                               ; preds = %1
  store i32 0, ptr %2, align 4
  store i32 1, ptr %7, align 4
  br label %67

13:                                               ; preds = %1
  %14 = load ptr, ptr %3, align 8, !tbaa !36
  call void @Vec_IntSort(ptr noundef %14, i32 noundef 0)
  store i32 1, ptr %5, align 4, !tbaa !8
  store i32 1, ptr %4, align 4, !tbaa !8
  br label %15

15:                                               ; preds = %54, %13
  %16 = load i32, ptr %4, align 4, !tbaa !8
  %17 = load ptr, ptr %3, align 8, !tbaa !36
  %18 = getelementptr inbounds nuw %struct.Vec_Int_t_, ptr %17, i32 0, i32 1
  %19 = load i32, ptr %18, align 4, !tbaa !38
  %20 = icmp slt i32 %16, %19
  br i1 %20, label %21, label %57

21:                                               ; preds = %15
  %22 = load ptr, ptr %3, align 8, !tbaa !36
  %23 = getelementptr inbounds nuw %struct.Vec_Int_t_, ptr %22, i32 0, i32 2
  %24 = load ptr, ptr %23, align 8, !tbaa !40
  %25 = load i32, ptr %4, align 4, !tbaa !8
  %26 = sext i32 %25 to i64
  %27 = getelementptr inbounds i32, ptr %24, i64 %26
  %28 = load i32, ptr %27, align 4, !tbaa !8
  %29 = load ptr, ptr %3, align 8, !tbaa !36
  %30 = getelementptr inbounds nuw %struct.Vec_Int_t_, ptr %29, i32 0, i32 2
  %31 = load ptr, ptr %30, align 8, !tbaa !40
  %32 = load i32, ptr %4, align 4, !tbaa !8
  %33 = sub nsw i32 %32, 1
  %34 = sext i32 %33 to i64
  %35 = getelementptr inbounds i32, ptr %31, i64 %34
  %36 = load i32, ptr %35, align 4, !tbaa !8
  %37 = icmp ne i32 %28, %36
  br i1 %37, label %38, label %53

38:                                               ; preds = %21
  %39 = load ptr, ptr %3, align 8, !tbaa !36
  %40 = getelementptr inbounds nuw %struct.Vec_Int_t_, ptr %39, i32 0, i32 2
  %41 = load ptr, ptr %40, align 8, !tbaa !40
  %42 = load i32, ptr %4, align 4, !tbaa !8
  %43 = sext i32 %42 to i64
  %44 = getelementptr inbounds i32, ptr %41, i64 %43
  %45 = load i32, ptr %44, align 4, !tbaa !8
  %46 = load ptr, ptr %3, align 8, !tbaa !36
  %47 = getelementptr inbounds nuw %struct.Vec_Int_t_, ptr %46, i32 0, i32 2
  %48 = load ptr, ptr %47, align 8, !tbaa !40
  %49 = load i32, ptr %5, align 4, !tbaa !8
  %50 = add nsw i32 %49, 1
  store i32 %50, ptr %5, align 4, !tbaa !8
  %51 = sext i32 %49 to i64
  %52 = getelementptr inbounds i32, ptr %48, i64 %51
  store i32 %45, ptr %52, align 4, !tbaa !8
  br label %53

53:                                               ; preds = %38, %21
  br label %54

54:                                               ; preds = %53
  %55 = load i32, ptr %4, align 4, !tbaa !8
  %56 = add nsw i32 %55, 1
  store i32 %56, ptr %4, align 4, !tbaa !8
  br label %15, !llvm.loop !41

57:                                               ; preds = %15
  %58 = load ptr, ptr %3, align 8, !tbaa !36
  %59 = getelementptr inbounds nuw %struct.Vec_Int_t_, ptr %58, i32 0, i32 1
  %60 = load i32, ptr %59, align 4, !tbaa !38
  %61 = load i32, ptr %5, align 4, !tbaa !8
  %62 = sub nsw i32 %60, %61
  store i32 %62, ptr %6, align 4, !tbaa !8
  %63 = load i32, ptr %5, align 4, !tbaa !8
  %64 = load ptr, ptr %3, align 8, !tbaa !36
  %65 = getelementptr inbounds nuw %struct.Vec_Int_t_, ptr %64, i32 0, i32 1
  store i32 %63, ptr %65, align 4, !tbaa !38
  %66 = load i32, ptr %6, align 4, !tbaa !8
  store i32 %66, ptr %2, align 4
  store i32 1, ptr %7, align 4
  br label %67

67:                                               ; preds = %57, %12
  call void @llvm.lifetime.end.p0(i64 4, ptr %6) #11
  call void @llvm.lifetime.end.p0(i64 4, ptr %5) #11
  call void @llvm.lifetime.end.p0(i64 4, ptr %4) #11
  %68 = load i32, ptr %2, align 4
  ret i32 %68
}

; Function Attrs: inlinehint nounwind uwtable
define internal ptr @Vec_IntDup(ptr noundef %0) #2 {
  %2 = alloca ptr, align 8
  %3 = alloca ptr, align 8
  store ptr %0, ptr %2, align 8, !tbaa !36
  call void @llvm.lifetime.start.p0(i64 8, ptr %3) #11
  %4 = call noalias ptr @malloc(i64 noundef 16) #12
  store ptr %4, ptr %3, align 8, !tbaa !36
  %5 = load ptr, ptr %2, align 8, !tbaa !36
  %6 = getelementptr inbounds nuw %struct.Vec_Int_t_, ptr %5, i32 0, i32 1
  %7 = load i32, ptr %6, align 4, !tbaa !38
  %8 = load ptr, ptr %3, align 8, !tbaa !36
  %9 = getelementptr inbounds nuw %struct.Vec_Int_t_, ptr %8, i32 0, i32 1
  store i32 %7, ptr %9, align 4, !tbaa !38
  %10 = load ptr, ptr %2, align 8, !tbaa !36
  %11 = getelementptr inbounds nuw %struct.Vec_Int_t_, ptr %10, i32 0, i32 1
  %12 = load i32, ptr %11, align 4, !tbaa !38
  %13 = load ptr, ptr %3, align 8, !tbaa !36
  %14 = getelementptr inbounds nuw %struct.Vec_Int_t_, ptr %13, i32 0, i32 0
  store i32 %12, ptr %14, align 8, !tbaa !39
  %15 = load ptr, ptr %3, align 8, !tbaa !36
  %16 = getelementptr inbounds nuw %struct.Vec_Int_t_, ptr %15, i32 0, i32 0
  %17 = load i32, ptr %16, align 8, !tbaa !39
  %18 = icmp ne i32 %17, 0
  br i1 %18, label %19, label %26

19:                                               ; preds = %1
  %20 = load ptr, ptr %3, align 8, !tbaa !36
  %21 = getelementptr inbounds nuw %struct.Vec_Int_t_, ptr %20, i32 0, i32 0
  %22 = load i32, ptr %21, align 8, !tbaa !39
  %23 = sext i32 %22 to i64
  %24 = mul i64 4, %23
  %25 = call noalias ptr @malloc(i64 noundef %24) #12
  br label %27

26:                                               ; preds = %1
  br label %27

27:                                               ; preds = %26, %19
  %28 = phi ptr [ %25, %19 ], [ null, %26 ]
  %29 = load ptr, ptr %3, align 8, !tbaa !36
  %30 = getelementptr inbounds nuw %struct.Vec_Int_t_, ptr %29, i32 0, i32 2
  store ptr %28, ptr %30, align 8, !tbaa !40
  %31 = load ptr, ptr %3, align 8, !tbaa !36
  %32 = getelementptr inbounds nuw %struct.Vec_Int_t_, ptr %31, i32 0, i32 2
  %33 = load ptr, ptr %32, align 8, !tbaa !40
  %34 = load ptr, ptr %2, align 8, !tbaa !36
  %35 = getelementptr inbounds nuw %struct.Vec_Int_t_, ptr %34, i32 0, i32 2
  %36 = load ptr, ptr %35, align 8, !tbaa !40
  %37 = load ptr, ptr %2, align 8, !tbaa !36
  %38 = getelementptr inbounds nuw %struct.Vec_Int_t_, ptr %37, i32 0, i32 1
  %39 = load i32, ptr %38, align 4, !tbaa !38
  %40 = sext i32 %39 to i64
  %41 = mul i64 4, %40
  call void @llvm.memcpy.p0.p0.i64(ptr align 4 %33, ptr align 4 %36, i64 %41, i1 false)
  %42 = load ptr, ptr %3, align 8, !tbaa !36
  call void @llvm.lifetime.end.p0(i64 8, ptr %3) #11
  ret ptr %42
}

; Function Attrs: nounwind uwtable
define i32 @Gia_Iso3Unique(ptr noundef %0) #0 {
  %2 = alloca ptr, align 8
  %3 = alloca i32, align 4
  %4 = alloca ptr, align 8
  store ptr %0, ptr %2, align 8, !tbaa !36
  call void @llvm.lifetime.start.p0(i64 4, ptr %3) #11
  call void @llvm.lifetime.start.p0(i64 8, ptr %4) #11
  %5 = load ptr, ptr %2, align 8, !tbaa !36
  %6 = call ptr @Vec_IntDup(ptr noundef %5)
  store ptr %6, ptr %4, align 8, !tbaa !36
  %7 = load ptr, ptr %4, align 8, !tbaa !36
  %8 = call i32 @Vec_IntUniqify(ptr noundef %7)
  %9 = load ptr, ptr %4, align 8, !tbaa !36
  %10 = call i32 @Vec_IntSize(ptr noundef %9)
  store i32 %10, ptr %3, align 4, !tbaa !8
  %11 = load ptr, ptr %4, align 8, !tbaa !36
  call void @Vec_IntFree(ptr noundef %11)
  %12 = load i32, ptr %3, align 4, !tbaa !8
  call void @llvm.lifetime.end.p0(i64 8, ptr %4) #11
  call void @llvm.lifetime.end.p0(i64 4, ptr %3) #11
  ret i32 %12
}