; Function Attrs: nounwind uwtable
define i32 @Gia_Iso3Unique(ptr noundef readonly captures(none) %0) local_unnamed_addr #2 {
  %2 = getelementptr inbounds nuw i8, ptr %0, i64 4
  %3 = load i32, ptr %2, align 4, !tbaa !36
  %.not.i = icmp eq i32 %3, 0
  br i1 %.not.i, label %Vec_IntFree.exit, label %Vec_IntDup.exit

Vec_IntDup.exit:                                  ; preds = %1
  %4 = sext i32 %3 to i64
  %5 = shl nsw i64 %4, 2
  %6 = tail call noalias ptr @malloc(i64 noundef %5) #18
  %7 = getelementptr inbounds nuw i8, ptr %0, i64 8
  %8 = load ptr, ptr %7, align 8, !tbaa !34
  tail call void @llvm.memcpy.p0.p0.i64(ptr align 4 %6, ptr align 4 %8, i64 %5, i1 false)
  %9 = icmp slt i32 %3, 2
  br i1 %9, label %Vec_IntUniqify.exit, label %.lr.ph.i

.lr.ph.i:                                         ; preds = %Vec_IntDup.exit
  %10 = zext nneg i32 %3 to i64
  tail call void @qsort(ptr noundef %6, i64 noundef %10, i64 noundef 4, ptr noundef nonnull @Vec_IntSortCompare1) #19
  br label %11

11:                                               ; preds = %20, %.lr.ph.i
  %indvars.iv.i = phi i64 [ 1, %.lr.ph.i ], [ %indvars.iv.next.i, %20 ]
  %.01824.i = phi i32 [ 1, %.lr.ph.i ], [ %.1.i, %20 ]
  %12 = getelementptr inbounds nuw i32, ptr %6, i64 %indvars.iv.i
  %13 = load i32, ptr %12, align 4, !tbaa !29
  %14 = getelementptr i8, ptr %12, i64 -4
  %15 = load i32, ptr %14, align 4, !tbaa !29
  %.not.i4 = icmp eq i32 %13, %15
  br i1 %.not.i4, label %20, label %16

16:                                               ; preds = %11
  %17 = add nsw i32 %.01824.i, 1
  %18 = sext i32 %.01824.i to i64
  %19 = getelementptr inbounds i32, ptr %6, i64 %18
  store i32 %13, ptr %19, align 4, !tbaa !29
  br label %20

20:                                               ; preds = %16, %11
  %.1.i = phi i32 [ %17, %16 ], [ %.01824.i, %11 ]
  %indvars.iv.next.i = add nuw nsw i64 %indvars.iv.i, 1
  %exitcond.not = icmp eq i64 %indvars.iv.next.i, %10
  br i1 %exitcond.not, label %Vec_IntUniqify.exit.thread10, label %11, !llvm.loop !37

Vec_IntUniqify.exit:                              ; preds = %Vec_IntDup.exit
  %.not.i5 = icmp eq ptr %6, null
  br i1 %.not.i5, label %Vec_IntFree.exit, label %Vec_IntUniqify.exit.thread10

Vec_IntUniqify.exit.thread10:                     ; preds = %20, %Vec_IntUniqify.exit
  %.val13 = phi i32 [ %3, %Vec_IntUniqify.exit ], [ %.1.i, %20 ]
  tail call void @free(ptr noundef nonnull %6) #19
  br label %Vec_IntFree.exit

Vec_IntFree.exit:                                 ; preds = %1, %Vec_IntUniqify.exit, %Vec_IntUniqify.exit.thread10
  %.val9 = phi i32 [ %3, %Vec_IntUniqify.exit ], [ %.val13, %Vec_IntUniqify.exit.thread10 ], [ 0, %1 ]
  ret i32 %.val9
}